target datalayout = "e-m:e-p270:32:32-p271:32:32-p272:64:64-i64:64-i128:128-f80:128-n8:16:32:64-S128"
target triple = "x86_64-pc-linux-gnu"

%"class.duckdb::CompressionInfo" = type { i64 }
%"struct.duckdb::roaring::RoaringAnalyzeState" = type { %"struct.duckdb::AnalyzeState", %"class.duckdb::unique_ptr.64", i16, i16, i16, i8, i16, i64, i64, i64, i64, i64, i64, %"struct.duckdb::roaring::ContainerMetadataCollection", %"class.duckdb::vector.79" }
%"struct.duckdb::AnalyzeState" = type { ptr, %"class.duckdb::CompressionInfo" }
%"class.duckdb::unique_ptr.64" = type { %"class.std::unique_ptr.65" }
%"class.std::unique_ptr.65" = type { %"struct.std::__uniq_ptr_data.66" }
%"struct.std::__uniq_ptr_data.66" = type { %"class.std::__uniq_ptr_impl.67" }
%"class.std::__uniq_ptr_impl.67" = type { %"class.std::tuple.68" }
%"class.std::tuple.68" = type { %"struct.std::_Tuple_impl.69" }
%"struct.std::_Tuple_impl.69" = type { %"struct.std::_Head_base.72" }
%"struct.std::_Head_base.72" = type { ptr }
%"struct.duckdb::roaring::ContainerMetadataCollection" = type { %"class.duckdb::vector.73", %"class.duckdb::vector.73", %"class.duckdb::vector.73", i64, i64, i64 }
%"class.duckdb::vector.73" = type { %"class.std::vector.74" }
%"class.std::vector.74" = type { %"struct.std::_Vector_base.75" }
%"struct.std::_Vector_base.75" = type { %"struct.std::_Vector_base<unsigned char, std::allocator<unsigned char>>::_Vector_impl" }
%"struct.std::_Vector_base<unsigned char, std::allocator<unsigned char>>::_Vector_impl" = type { %"struct.std::_Vector_base<unsigned char, std::allocator<unsigned char>>::_Vector_impl_data" }
%"struct.std::_Vector_base<unsigned char, std::allocator<unsigned char>>::_Vector_impl_data" = type { ptr, ptr, ptr }
%"class.duckdb::vector.79" = type { %"class.std::vector.80" }
%"class.std::vector.80" = type { %"struct.std::_Vector_base.81" }
%"struct.std::_Vector_base.81" = type { %"struct.std::_Vector_base<duckdb::roaring::ContainerMetadata, std::allocator<duckdb::roaring::ContainerMetadata>>::_Vector_impl" }
%"struct.std::_Vector_base<duckdb::roaring::ContainerMetadata, std::allocator<duckdb::roaring::ContainerMetadata>>::_Vector_impl" = type { %"struct.std::_Vector_base<duckdb::roaring::ContainerMetadata, std::allocator<duckdb::roaring::ContainerMetadata>>::_Vector_impl_data" }
%"struct.std::_Vector_base<duckdb::roaring::ContainerMetadata, std::allocator<duckdb::roaring::ContainerMetadata>>::_Vector_impl_data" = type { ptr, ptr, ptr }

; Function Attrs: inlinehint mustprogress nounwind uwtable
define internal void @_ZN6duckdb7roaringL9HandleBitERNS0_19RoaringAnalyzeStateEb(ptr noundef nonnull align 8 dereferenceable(208) %0, i1 noundef zeroext %1) #5 {
  %3 = alloca ptr, align 8
  %4 = alloca i8, align 1
  store ptr %0, ptr %3, align 8, !tbaa !97
  %5 = zext i1 %1 to i8
  store i8 %5, ptr %4, align 1, !tbaa !136
  %6 = load i8, ptr %4, align 1, !tbaa !136, !range !278, !noundef !279
  %7 = trunc i8 %6 to i1
  br i1 %7, label %26, label %8

8:                                                ; preds = %2
  %9 = load ptr, ptr %3, align 8, !tbaa !97
  %10 = getelementptr inbounds nuw %"struct.duckdb::roaring::RoaringAnalyzeState", ptr %9, i32 0, i32 6
  %11 = load i16, ptr %10, align 8, !tbaa !130
  %12 = zext i16 %11 to i32
  %13 = icmp eq i32 %12, 0
  br i1 %13, label %21, label %14

14:                                               ; preds = %8
  %15 = load ptr, ptr %3, align 8, !tbaa !97
  %16 = getelementptr inbounds nuw %"struct.duckdb::roaring::RoaringAnalyzeState", ptr %15, i32 0, i32 5
  %17 = load i8, ptr %16, align 2, !tbaa !142, !range !278, !noundef !279
  %18 = trunc i8 %17 to i1
  %19 = zext i1 %18 to i32
  %20 = icmp eq i32 %19, 1
  br i1 %20, label %21, label %26

21:                                               ; preds = %14, %8
  %22 = load ptr, ptr %3, align 8, !tbaa !97
  %23 = getelementptr inbounds nuw %"struct.duckdb::roaring::RoaringAnalyzeState", ptr %22, i32 0, i32 4
  %24 = load i16, ptr %23, align 4, !tbaa !141
  %25 = add i16 %24, 1
  store i16 %25, ptr %23, align 4, !tbaa !141
  br label %26

26:                                               ; preds = %21, %14, %2
  %27 = load i8, ptr %4, align 1, !tbaa !136, !range !278, !noundef !279
  %28 = trunc i8 %27 to i1
  %29 = zext i1 %28 to i32
  %30 = load ptr, ptr %3, align 8, !tbaa !97
  %31 = getelementptr inbounds nuw %"struct.duckdb::roaring::RoaringAnalyzeState", ptr %30, i32 0, i32 2
  %32 = load i16, ptr %31, align 8, !tbaa !139
  %33 = zext i16 %32 to i32
  %34 = add nsw i32 %33, %29
  %35 = trunc i32 %34 to i16
  store i16 %35, ptr %31, align 8, !tbaa !139
  %36 = load i8, ptr %4, align 1, !tbaa !136, !range !278, !noundef !279
  %37 = trunc i8 %36 to i1
  %38 = xor i1 %37, true
  %39 = zext i1 %38 to i32
  %40 = load ptr, ptr %3, align 8, !tbaa !97
  %41 = getelementptr inbounds nuw %"struct.duckdb::roaring::RoaringAnalyzeState", ptr %40, i32 0, i32 3
  %42 = load i16, ptr %41, align 2, !tbaa !140
  %43 = zext i16 %42 to i32
  %44 = add nsw i32 %43, %39
  %45 = trunc i32 %44 to i16
  store i16 %45, ptr %41, align 2, !tbaa !140
  %46 = load i8, ptr %4, align 1, !tbaa !136, !range !278, !noundef !279
  %47 = trunc i8 %46 to i1
  %48 = load ptr, ptr %3, align 8, !tbaa !97
  %49 = getelementptr inbounds nuw %"struct.duckdb::roaring::RoaringAnalyzeState", ptr %48, i32 0, i32 5
  %50 = zext i1 %47 to i8
  store i8 %50, ptr %49, align 2, !tbaa !142
  %51 = load ptr, ptr %3, align 8, !tbaa !97
  %52 = getelementptr inbounds nuw %"struct.duckdb::roaring::RoaringAnalyzeState", ptr %51, i32 0, i32 6
  %53 = load i16, ptr %52, align 8, !tbaa !130
  %54 = add i16 %53, 1
  store i16 %54, ptr %52, align 8, !tbaa !130
  ret void
}

; Function Attrs: mustprogress uwtable
define void @_ZN6duckdb7roaring19RoaringAnalyzeState16HandleRaggedByteERS1_hm(ptr noundef nonnull align 8 dereferenceable(208) %0, i8 noundef zeroext %1, i64 noundef %2) #0 align 2 {
  %4 = alloca ptr, align 8
  %5 = alloca i8, align 1
  %6 = alloca i64, align 8
  %7 = alloca i64, align 8
  %8 = alloca i8, align 1
  store ptr %0, ptr %4, align 8, !tbaa !97
  store i8 %1, ptr %5, align 1, !tbaa !292
  store i64 %2, ptr %6, align 8, !tbaa !8
  call void @llvm.lifetime.start.p0(i64 8, ptr %7) #19
  store i64 0, ptr %7, align 8, !tbaa !8
  br label %9

9:                                                ; preds = %26, %3
  %10 = load i64, ptr %7, align 8, !tbaa !8
  %11 = load i64, ptr %6, align 8, !tbaa !8
  %12 = icmp ult i64 %10, %11
  br i1 %12, label %14, label %13

13:                                               ; preds = %9
  call void @llvm.lifetime.end.p0(i64 8, ptr %7) #19
  br label %29

14:                                               ; preds = %9
  call void @llvm.lifetime.start.p0(i64 1, ptr %8) #19
  %15 = load i8, ptr %5, align 1, !tbaa !292
  %16 = zext i8 %15 to i32
  %17 = load i64, ptr %7, align 8, !tbaa !8
  %18 = trunc i64 %17 to i32
  %19 = shl i32 1, %18
  %20 = and i32 %16, %19
  %21 = icmp ne i32 %20, 0
  %22 = zext i1 %21 to i8
  store i8 %22, ptr %8, align 1, !tbaa !136
  %23 = load ptr, ptr %4, align 8, !tbaa !97
  %24 = load i8, ptr %8, align 1, !tbaa !136, !range !278, !noundef !279
  %25 = trunc i8 %24 to i1
  call void @_ZN6duckdb7roaringL9HandleBitERNS0_19RoaringAnalyzeStateEb(ptr noundef nonnull align 8 dereferenceable(208) %23, i1 noundef zeroext %25)
  call void @llvm.lifetime.end.p0(i64 1, ptr %8) #19
  br label %26

26:                                               ; preds = %14
  %27 = load i64, ptr %7, align 8, !tbaa !8
  %28 = add i64 %27, 1
  store i64 %28, ptr %7, align 8, !tbaa !8
  br label %9, !llvm.loop !323

29:                                               ; preds = %13
  ret void
}