; Function Attrs: mustprogress nofree norecurse nosync nounwind memory(argmem: readwrite) uwtable
define void @_ZN6duckdb7roaring19RoaringAnalyzeState16HandleRaggedByteERS1_hm(ptr noundef nonnull align 8 captures(none) dereferenceable(208) %0, i8 noundef zeroext %1, i64 noundef %2) local_unnamed_addr #12 align 2 {
  %.not = icmp eq i64 %2, 0
  br i1 %.not, label %13, label %.lr.ph

.lr.ph:                                           ; preds = %3
  %4 = zext i8 %1 to i32
  %.phi.trans.insert.i = getelementptr inbounds nuw i8, ptr %0, i64 32
  %5 = getelementptr inbounds nuw i8, ptr %0, i64 30
  %6 = getelementptr inbounds nuw i8, ptr %0, i64 28
  %7 = getelementptr inbounds nuw i8, ptr %0, i64 24
  %8 = getelementptr inbounds nuw i8, ptr %0, i64 26
  %.phi.trans.insert.i.promoted = load i16, ptr %.phi.trans.insert.i, align 8, !tbaa !117
  %.promoted = load i8, ptr %5, align 2
  %.promoted8 = load i16, ptr %6, align 4
  %.promoted9 = load i16, ptr %7, align 8, !tbaa !119
  %.promoted11 = load i16, ptr %8, align 2, !tbaa !118
  %9 = trunc nuw i8 %.promoted to i1
  %10 = trunc i64 %2 to i16
  br label %14

._crit_edge:                                      ; preds = %_ZN6duckdb7roaringL9HandleBitERNS0_19RoaringAnalyzeStateEb.exit
  %11 = add i16 %.phi.trans.insert.i.promoted, %10
  %12 = zext i1 %23 to i8
  store i16 %11, ptr %.phi.trans.insert.i, align 8, !tbaa !117
  store i8 %12, ptr %5, align 2, !tbaa !318
  store i16 %29, ptr %7, align 8, !tbaa !119
  store i16 %32, ptr %8, align 2, !tbaa !118
  br label %13

13:                                               ; preds = %._crit_edge, %3
  ret void

14:                                               ; preds = %.lr.ph, %_ZN6duckdb7roaringL9HandleBitERNS0_19RoaringAnalyzeStateEb.exit
  %15 = phi i16 [ %.promoted11, %.lr.ph ], [ %32, %_ZN6duckdb7roaringL9HandleBitERNS0_19RoaringAnalyzeStateEb.exit ]
  %16 = phi i16 [ %.promoted9, %.lr.ph ], [ %29, %_ZN6duckdb7roaringL9HandleBitERNS0_19RoaringAnalyzeStateEb.exit ]
  %17 = phi i16 [ %.promoted8, %.lr.ph ], [ %27, %_ZN6duckdb7roaringL9HandleBitERNS0_19RoaringAnalyzeStateEb.exit ]
  %18 = phi i1 [ %9, %.lr.ph ], [ %23, %_ZN6duckdb7roaringL9HandleBitERNS0_19RoaringAnalyzeStateEb.exit ]
  %19 = phi i16 [ %.phi.trans.insert.i.promoted, %.lr.ph ], [ %33, %_ZN6duckdb7roaringL9HandleBitERNS0_19RoaringAnalyzeStateEb.exit ]
  %.06 = phi i64 [ 0, %.lr.ph ], [ %34, %_ZN6duckdb7roaringL9HandleBitERNS0_19RoaringAnalyzeStateEb.exit ]
  %20 = trunc i64 %.06 to i32
  %21 = shl nuw i32 1, %20
  %22 = and i32 %21, %4
  %23 = icmp ne i32 %22, 0
  %.not18 = xor i1 %23, true
  %24 = icmp eq i16 %19, 0
  %brmerge = select i1 %24, i1 true, i1 %18
  %or.cond = select i1 %.not18, i1 %brmerge, i1 false
  br i1 %or.cond, label %25, label %_ZN6duckdb7roaringL9HandleBitERNS0_19RoaringAnalyzeStateEb.exit

25:                                               ; preds = %14
  %26 = add i16 %17, 1
  store i16 %26, ptr %6, align 4, !tbaa !120
  br label %_ZN6duckdb7roaringL9HandleBitERNS0_19RoaringAnalyzeStateEb.exit

_ZN6duckdb7roaringL9HandleBitERNS0_19RoaringAnalyzeStateEb.exit: ; preds = %14, %25
  %27 = phi i16 [ %17, %14 ], [ %26, %25 ]
  %28 = zext i1 %23 to i16
  %29 = add i16 %16, %28
  %30 = xor i1 %23, true
  %31 = zext i1 %30 to i16
  %32 = add i16 %15, %31
  %33 = add i16 %19, 1
  %34 = add nuw i64 %.06, 1
  %exitcond.not = icmp eq i64 %34, %2
  br i1 %exitcond.not, label %._crit_edge, label %14, !llvm.loop !320
}